target datalayout = "e-m:e-p270:32:32-p271:32:32-p272:64:64-i64:64-i128:128-f80:128-n8:16:32:64-S128"
target triple = "x86_64-unknown-linux-gnu"

%"class.base::internal::JSONParser" = type <{ i32, [4 x i8], ptr, ptr, ptr, i32, i32, i32, i32, i32, i32, i32, [4 x i8] }>

; Function Attrs: mustprogress nounwind uwtable
define dso_local noundef ptr @_ZN4base8internal10JSONParser8NextCharEv(ptr noundef nonnull align 8 dereferenceable(60) %this) #0 align 2 {
entry:
  %this.addr = alloca ptr, align 8
  store ptr %this, ptr %this.addr, align 8
  %this1 = load ptr, ptr %this.addr, align 8
  %index_ = getelementptr inbounds %"class.base::internal::JSONParser", ptr %this1, i32 0, i32 5
  %0 = load i32, ptr %index_, align 8
  %inc = add nsw i32 %0, 1
  store i32 %inc, ptr %index_, align 8
  %pos_ = getelementptr inbounds %"class.base::internal::JSONParser", ptr %this1, i32 0, i32 3
  %1 = load ptr, ptr %pos_, align 8
  %incdec.ptr = getelementptr inbounds i8, ptr %1, i32 1
  store ptr %incdec.ptr, ptr %pos_, align 8
  %pos_2 = getelementptr inbounds %"class.base::internal::JSONParser", ptr %this1, i32 0, i32 3
  %2 = load ptr, ptr %pos_2, align 8
  ret ptr %2
}