; Function Attrs: mustprogress nofree norecurse nosync nounwind willreturn memory(argmem: readwrite) uwtable
define dso_local noundef nonnull ptr @_ZN4base8internal10JSONParser8NextCharEv(ptr nocapture noundef nonnull align 8 dereferenceable(60) %this) local_unnamed_addr #6 align 2 {
entry:
  %index_ = getelementptr inbounds i8, ptr %this, i64 32
  %0 = load i32, ptr %index_, align 8
  %inc = add nsw i32 %0, 1
  store i32 %inc, ptr %index_, align 8
  %pos_ = getelementptr inbounds i8, ptr %this, i64 16
  %1 = load ptr, ptr %pos_, align 8
  %incdec.ptr = getelementptr inbounds i8, ptr %1, i64 1
  store ptr %incdec.ptr, ptr %pos_, align 8
  ret ptr %incdec.ptr
}